target datalayout = "e-m:e-p270:32:32-p271:32:32-p272:64:64-i64:64-i128:128-f80:128-n8:16:32:64-S128"
target triple = "x86_64-pc-linux-gnu"

%struct.curl_mimepart = type { ptr, ptr, i32, i32, ptr, ptr, ptr, ptr, ptr, ptr, ptr, ptr, ptr, ptr, ptr, i64, %struct.mime_state, ptr, %struct.mime_encoder_state, i64 }
%struct.mime_state = type { i32, ptr, i64 }
%struct.mime_encoder_state = type { i64, i64, i64, [256 x i8] }
%struct.curl_mime = type { ptr, ptr, ptr, [47 x i8], %struct.mime_state }

@Curl_cfree = external global ptr, align 8

; Function Attrs: nounwind uwtable
define internal void @mimesetstate(ptr noundef %0, i32 noundef %1, ptr noundef %2) #0 {
  %4 = alloca ptr, align 8
  %5 = alloca i32, align 4
  %6 = alloca ptr, align 8
  store ptr %0, ptr %4, align 8, !tbaa !57
  store i32 %1, ptr %5, align 4, !tbaa !45
  store ptr %2, ptr %6, align 8, !tbaa !22
  %7 = load i32, ptr %5, align 4, !tbaa !45
  %8 = load ptr, ptr %4, align 8, !tbaa !57
  %9 = getelementptr inbounds nuw %struct.mime_state, ptr %8, i32 0, i32 0
  store i32 %7, ptr %9, align 8, !tbaa !59
  %10 = load ptr, ptr %6, align 8, !tbaa !22
  %11 = load ptr, ptr %4, align 8, !tbaa !57
  %12 = getelementptr inbounds nuw %struct.mime_state, ptr %11, i32 0, i32 1
  store ptr %10, ptr %12, align 8, !tbaa !60
  %13 = load ptr, ptr %4, align 8, !tbaa !57
  %14 = getelementptr inbounds nuw %struct.mime_state, ptr %13, i32 0, i32 2
  store i64 0, ptr %14, align 8, !tbaa !61
  ret void
}

; Function Attrs: nounwind uwtable
define internal void @cleanup_encoder_state(ptr noundef %0) #0 {
  %2 = alloca ptr, align 8
  store ptr %0, ptr %2, align 8, !tbaa !107
  %3 = load ptr, ptr %2, align 8, !tbaa !107
  %4 = getelementptr inbounds nuw %struct.mime_encoder_state, ptr %3, i32 0, i32 0
  store i64 0, ptr %4, align 8, !tbaa !109
  %5 = load ptr, ptr %2, align 8, !tbaa !107
  %6 = getelementptr inbounds nuw %struct.mime_encoder_state, ptr %5, i32 0, i32 1
  store i64 0, ptr %6, align 8, !tbaa !110
  %7 = load ptr, ptr %2, align 8, !tbaa !107
  %8 = getelementptr inbounds nuw %struct.mime_encoder_state, ptr %7, i32 0, i32 2
  store i64 0, ptr %8, align 8, !tbaa !111
  ret void
}

; Function Attrs: nounwind uwtable
define dso_local void @Curl_mime_initpart(ptr noundef %0) #0 {
  %2 = alloca ptr, align 8
  store ptr %0, ptr %2, align 8, !tbaa !4
  %3 = load ptr, ptr %2, align 8, !tbaa !4
  call void @llvm.memset.p0.i64(ptr align 1 %3, i8 0, i64 440, i1 false)
  %4 = load ptr, ptr %2, align 8, !tbaa !4
  %5 = getelementptr inbounds nuw %struct.curl_mimepart, ptr %4, i32 0, i32 19
  store i64 1, ptr %5, align 8, !tbaa !34
  %6 = load ptr, ptr %2, align 8, !tbaa !4
  %7 = getelementptr inbounds nuw %struct.curl_mimepart, ptr %6, i32 0, i32 16
  call void @mimesetstate(ptr noundef %7, i32 noundef 0, ptr noundef null)
  ret void
}

; Function Attrs: nounwind uwtable
define internal void @cleanup_part_content(ptr noundef %0) #0 {
  %2 = alloca ptr, align 8
  store ptr %0, ptr %2, align 8, !tbaa !4
  %3 = load ptr, ptr %2, align 8, !tbaa !4
  %4 = getelementptr inbounds nuw %struct.curl_mimepart, ptr %3, i32 0, i32 7
  %5 = load ptr, ptr %4, align 8, !tbaa !26
  %6 = icmp ne ptr %5, null
  br i1 %6, label %7, label %14

7:                                                ; preds = %1
  %8 = load ptr, ptr %2, align 8, !tbaa !4
  %9 = getelementptr inbounds nuw %struct.curl_mimepart, ptr %8, i32 0, i32 7
  %10 = load ptr, ptr %9, align 8, !tbaa !26
  %11 = load ptr, ptr %2, align 8, !tbaa !4
  %12 = getelementptr inbounds nuw %struct.curl_mimepart, ptr %11, i32 0, i32 8
  %13 = load ptr, ptr %12, align 8, !tbaa !27
  call void %10(ptr noundef %13)
  br label %14

14:                                               ; preds = %7, %1
  %15 = load ptr, ptr %2, align 8, !tbaa !4
  %16 = getelementptr inbounds nuw %struct.curl_mimepart, ptr %15, i32 0, i32 5
  store ptr null, ptr %16, align 8, !tbaa !28
  %17 = load ptr, ptr %2, align 8, !tbaa !4
  %18 = getelementptr inbounds nuw %struct.curl_mimepart, ptr %17, i32 0, i32 6
  store ptr null, ptr %18, align 8, !tbaa !29
  %19 = load ptr, ptr %2, align 8, !tbaa !4
  %20 = getelementptr inbounds nuw %struct.curl_mimepart, ptr %19, i32 0, i32 7
  store ptr null, ptr %20, align 8, !tbaa !26
  %21 = load ptr, ptr %2, align 8, !tbaa !4
  %22 = load ptr, ptr %2, align 8, !tbaa !4
  %23 = getelementptr inbounds nuw %struct.curl_mimepart, ptr %22, i32 0, i32 8
  store ptr %21, ptr %23, align 8, !tbaa !27
  %24 = load ptr, ptr %2, align 8, !tbaa !4
  %25 = getelementptr inbounds nuw %struct.curl_mimepart, ptr %24, i32 0, i32 4
  store ptr null, ptr %25, align 8, !tbaa !30
  %26 = load ptr, ptr %2, align 8, !tbaa !4
  %27 = getelementptr inbounds nuw %struct.curl_mimepart, ptr %26, i32 0, i32 9
  store ptr null, ptr %27, align 8, !tbaa !31
  %28 = load ptr, ptr %2, align 8, !tbaa !4
  %29 = getelementptr inbounds nuw %struct.curl_mimepart, ptr %28, i32 0, i32 15
  store i64 0, ptr %29, align 8, !tbaa !32
  %30 = load ptr, ptr %2, align 8, !tbaa !4
  %31 = getelementptr inbounds nuw %struct.curl_mimepart, ptr %30, i32 0, i32 18
  call void @cleanup_encoder_state(ptr noundef %31)
  %32 = load ptr, ptr %2, align 8, !tbaa !4
  %33 = getelementptr inbounds nuw %struct.curl_mimepart, ptr %32, i32 0, i32 2
  store i32 0, ptr %33, align 8, !tbaa !33
  %34 = load ptr, ptr %2, align 8, !tbaa !4
  %35 = getelementptr inbounds nuw %struct.curl_mimepart, ptr %34, i32 0, i32 3
  %36 = load i32, ptr %35, align 4, !tbaa !20
  %37 = and i32 %36, -5
  store i32 %37, ptr %35, align 4, !tbaa !20
  %38 = load ptr, ptr %2, align 8, !tbaa !4
  %39 = getelementptr inbounds nuw %struct.curl_mimepart, ptr %38, i32 0, i32 19
  store i64 1, ptr %39, align 8, !tbaa !34
  %40 = load ptr, ptr %2, align 8, !tbaa !4
  %41 = getelementptr inbounds nuw %struct.curl_mimepart, ptr %40, i32 0, i32 16
  %42 = getelementptr inbounds nuw %struct.mime_state, ptr %41, i32 0, i32 0
  store i32 0, ptr %42, align 8, !tbaa !35
  ret void
}

; Function Attrs: nounwind uwtable
define dso_local void @Curl_mime_cleanpart(ptr noundef %0) #0 {
  %2 = alloca ptr, align 8
  store ptr %0, ptr %2, align 8, !tbaa !4
  %3 = load ptr, ptr %2, align 8, !tbaa !4
  %4 = icmp ne ptr %3, null
  br i1 %4, label %5, label %45

5:                                                ; preds = %1
  %6 = load ptr, ptr %2, align 8, !tbaa !4
  call void @cleanup_part_content(ptr noundef %6)
  %7 = load ptr, ptr %2, align 8, !tbaa !4
  %8 = getelementptr inbounds nuw %struct.curl_mimepart, ptr %7, i32 0, i32 10
  %9 = load ptr, ptr %8, align 8, !tbaa !9
  call void @curl_slist_free_all(ptr noundef %9)
  %10 = load ptr, ptr %2, align 8, !tbaa !4
  %11 = getelementptr inbounds nuw %struct.curl_mimepart, ptr %10, i32 0, i32 3
  %12 = load i32, ptr %11, align 4, !tbaa !20
  %13 = and i32 %12, 1
  %14 = icmp ne i32 %13, 0
  br i1 %14, label %15, label %19

15:                                               ; preds = %5
  %16 = load ptr, ptr %2, align 8, !tbaa !4
  %17 = getelementptr inbounds nuw %struct.curl_mimepart, ptr %16, i32 0, i32 11
  %18 = load ptr, ptr %17, align 8, !tbaa !21
  call void @curl_slist_free_all(ptr noundef %18)
  br label %19

19:                                               ; preds = %15, %5
  br label %20

20:                                               ; preds = %19
  %21 = load ptr, ptr @Curl_cfree, align 8, !tbaa !22
  %22 = load ptr, ptr %2, align 8, !tbaa !4
  %23 = getelementptr inbounds nuw %struct.curl_mimepart, ptr %22, i32 0, i32 12
  %24 = load ptr, ptr %23, align 8, !tbaa !23
  call void %21(ptr noundef %24)
  %25 = load ptr, ptr %2, align 8, !tbaa !4
  %26 = getelementptr inbounds nuw %struct.curl_mimepart, ptr %25, i32 0, i32 12
  store ptr null, ptr %26, align 8, !tbaa !23
  br label %27

27:                                               ; preds = %20
  br label %28

28:                                               ; preds = %27
  %29 = load ptr, ptr @Curl_cfree, align 8, !tbaa !22
  %30 = load ptr, ptr %2, align 8, !tbaa !4
  %31 = getelementptr inbounds nuw %struct.curl_mimepart, ptr %30, i32 0, i32 14
  %32 = load ptr, ptr %31, align 8, !tbaa !24
  call void %29(ptr noundef %32)
  %33 = load ptr, ptr %2, align 8, !tbaa !4
  %34 = getelementptr inbounds nuw %struct.curl_mimepart, ptr %33, i32 0, i32 14
  store ptr null, ptr %34, align 8, !tbaa !24
  br label %35

35:                                               ; preds = %28
  br label %36

36:                                               ; preds = %35
  %37 = load ptr, ptr @Curl_cfree, align 8, !tbaa !22
  %38 = load ptr, ptr %2, align 8, !tbaa !4
  %39 = getelementptr inbounds nuw %struct.curl_mimepart, ptr %38, i32 0, i32 13
  %40 = load ptr, ptr %39, align 8, !tbaa !25
  call void %37(ptr noundef %40)
  %41 = load ptr, ptr %2, align 8, !tbaa !4
  %42 = getelementptr inbounds nuw %struct.curl_mimepart, ptr %41, i32 0, i32 13
  store ptr null, ptr %42, align 8, !tbaa !25
  br label %43

43:                                               ; preds = %36
  %44 = load ptr, ptr %2, align 8, !tbaa !4
  call void @Curl_mime_initpart(ptr noundef %44)
  br label %45

45:                                               ; preds = %43, %1
  ret void
}

; Function Attrs: nounwind uwtable
define internal void @mime_subparts_unbind(ptr noundef %0) #0 {
  %2 = alloca ptr, align 8
  %3 = alloca ptr, align 8
  store ptr %0, ptr %2, align 8, !tbaa !22
  call void @llvm.lifetime.start.p0(i64 8, ptr %3) #8
  %4 = load ptr, ptr %2, align 8, !tbaa !22
  store ptr %4, ptr %3, align 8, !tbaa !36
  %5 = load ptr, ptr %3, align 8, !tbaa !36
  %6 = icmp ne ptr %5, null
  br i1 %6, label %7, label %22

7:                                                ; preds = %1
  %8 = load ptr, ptr %3, align 8, !tbaa !36
  %9 = getelementptr inbounds nuw %struct.curl_mime, ptr %8, i32 0, i32 0
  %10 = load ptr, ptr %9, align 8, !tbaa !42
  %11 = icmp ne ptr %10, null
  br i1 %11, label %12, label %22

12:                                               ; preds = %7
  %13 = load ptr, ptr %3, align 8, !tbaa !36
  %14 = getelementptr inbounds nuw %struct.curl_mime, ptr %13, i32 0, i32 0
  %15 = load ptr, ptr %14, align 8, !tbaa !42
  %16 = getelementptr inbounds nuw %struct.curl_mimepart, ptr %15, i32 0, i32 7
  store ptr null, ptr %16, align 8, !tbaa !26
  %17 = load ptr, ptr %3, align 8, !tbaa !36
  %18 = getelementptr inbounds nuw %struct.curl_mime, ptr %17, i32 0, i32 0
  %19 = load ptr, ptr %18, align 8, !tbaa !42
  call void @cleanup_part_content(ptr noundef %19)
  %20 = load ptr, ptr %3, align 8, !tbaa !36
  %21 = getelementptr inbounds nuw %struct.curl_mime, ptr %20, i32 0, i32 0
  store ptr null, ptr %21, align 8, !tbaa !42
  br label %22

22:                                               ; preds = %12, %7, %1
  call void @llvm.lifetime.end.p0(i64 8, ptr %3) #8
  ret void
}

; Function Attrs: nounwind uwtable
define dso_local void @curl_mime_free(ptr noundef %0) #0 {
  %2 = alloca ptr, align 8
  %3 = alloca ptr, align 8
  store ptr %0, ptr %2, align 8, !tbaa !36
  call void @llvm.lifetime.start.p0(i64 8, ptr %3) #8
  %4 = load ptr, ptr %2, align 8, !tbaa !36
  %5 = icmp ne ptr %4, null
  br i1 %5, label %6, label %28

6:                                                ; preds = %1
  %7 = load ptr, ptr %2, align 8, !tbaa !36
  call void @mime_subparts_unbind(ptr noundef %7)
  br label %8

8:                                                ; preds = %13, %6
  %9 = load ptr, ptr %2, align 8, !tbaa !36
  %10 = getelementptr inbounds nuw %struct.curl_mime, ptr %9, i32 0, i32 1
  %11 = load ptr, ptr %10, align 8, !tbaa !37
  %12 = icmp ne ptr %11, null
  br i1 %12, label %13, label %25

13:                                               ; preds = %8
  %14 = load ptr, ptr %2, align 8, !tbaa !36
  %15 = getelementptr inbounds nuw %struct.curl_mime, ptr %14, i32 0, i32 1
  %16 = load ptr, ptr %15, align 8, !tbaa !37
  store ptr %16, ptr %3, align 8, !tbaa !4
  %17 = load ptr, ptr %3, align 8, !tbaa !4
  %18 = getelementptr inbounds nuw %struct.curl_mimepart, ptr %17, i32 0, i32 1
  %19 = load ptr, ptr %18, align 8, !tbaa !39
  %20 = load ptr, ptr %2, align 8, !tbaa !36
  %21 = getelementptr inbounds nuw %struct.curl_mime, ptr %20, i32 0, i32 1
  store ptr %19, ptr %21, align 8, !tbaa !37
  %22 = load ptr, ptr %3, align 8, !tbaa !4
  call void @Curl_mime_cleanpart(ptr noundef %22)
  %23 = load ptr, ptr @Curl_cfree, align 8, !tbaa !22
  %24 = load ptr, ptr %3, align 8, !tbaa !4
  call void %23(ptr noundef %24)
  br label %8, !llvm.loop !40

25:                                               ; preds = %8
  %26 = load ptr, ptr @Curl_cfree, align 8, !tbaa !22
  %27 = load ptr, ptr %2, align 8, !tbaa !36
  call void %26(ptr noundef %27)
  br label %28

28:                                               ; preds = %25, %1
  call void @llvm.lifetime.end.p0(i64 8, ptr %3) #8
  ret void
}