; Function Attrs: nounwind uwtable
define dso_local void @curl_mime_free(ptr noundef %0) local_unnamed_addr #0 {
  %.not = icmp eq ptr %0, null
  br i1 %.not, label %58, label %2

2:                                                ; preds = %1
  %3 = load ptr, ptr %0, align 8, !tbaa !33
  %.not7.i = icmp eq ptr %3, null
  br i1 %.not7.i, label %mime_subparts_unbind.exit, label %cleanup_part_content.exit.i

cleanup_part_content.exit.i:                      ; preds = %2
  %4 = getelementptr inbounds nuw i8, ptr %3, i64 32
  %5 = getelementptr inbounds nuw i8, ptr %3, i64 56
  tail call void @llvm.memset.p0.i64(ptr noundef nonnull align 8 dereferenceable(24) %4, i8 0, i64 24, i1 false)
  store ptr %3, ptr %5, align 8, !tbaa !19
  %6 = getelementptr inbounds nuw i8, ptr %3, i64 24
  store ptr null, ptr %6, align 8, !tbaa !20
  %7 = getelementptr inbounds nuw i8, ptr %3, i64 64
  store ptr null, ptr %7, align 8, !tbaa !21
  %8 = getelementptr inbounds nuw i8, ptr %3, i64 112
  store i64 0, ptr %8, align 8, !tbaa !22
  %9 = getelementptr inbounds nuw i8, ptr %3, i64 152
  tail call void @llvm.memset.p0.i64(ptr noundef nonnull align 8 dereferenceable(24) %9, i8 0, i64 24, i1 false)
  %10 = getelementptr inbounds nuw i8, ptr %3, i64 16
  store i32 0, ptr %10, align 8, !tbaa !23
  %11 = getelementptr inbounds nuw i8, ptr %3, i64 20
  %12 = load i32, ptr %11, align 4, !tbaa !24
  %13 = and i32 %12, -5
  store i32 %13, ptr %11, align 4, !tbaa !24
  %14 = getelementptr inbounds nuw i8, ptr %3, i64 432
  store i64 1, ptr %14, align 8, !tbaa !25
  %15 = getelementptr inbounds nuw i8, ptr %3, i64 120
  store i32 0, ptr %15, align 8, !tbaa !26
  store ptr null, ptr %0, align 8, !tbaa !33
  br label %mime_subparts_unbind.exit

mime_subparts_unbind.exit:                        ; preds = %2, %cleanup_part_content.exit.i
  %16 = getelementptr inbounds nuw i8, ptr %0, i64 8
  %17 = load ptr, ptr %16, align 8, !tbaa !35
  %.not1013 = icmp eq ptr %17, null
  br i1 %.not1013, label %._crit_edge, label %.lr.ph

.lr.ph:                                           ; preds = %mime_subparts_unbind.exit, %Curl_mime_cleanpart.exit
  %18 = phi ptr [ %56, %Curl_mime_cleanpart.exit ], [ %17, %mime_subparts_unbind.exit ]
  %19 = getelementptr inbounds nuw i8, ptr %18, i64 8
  %20 = load ptr, ptr %19, align 8, !tbaa !36
  store ptr %20, ptr %16, align 8, !tbaa !35
  %21 = getelementptr inbounds nuw i8, ptr %18, i64 48
  %22 = load ptr, ptr %21, align 8, !tbaa !4
  %.not.i.i = icmp eq ptr %22, null
  br i1 %.not.i.i, label %cleanup_part_content.exit.i12, label %23

23:                                               ; preds = %.lr.ph
  %24 = getelementptr inbounds nuw i8, ptr %18, i64 56
  %25 = load ptr, ptr %24, align 8, !tbaa !19
  tail call void %22(ptr noundef %25) #18
  br label %cleanup_part_content.exit.i12

cleanup_part_content.exit.i12:                    ; preds = %23, %.lr.ph
  %26 = getelementptr inbounds nuw i8, ptr %18, i64 32
  %27 = getelementptr inbounds nuw i8, ptr %18, i64 56
  tail call void @llvm.memset.p0.i64(ptr noundef nonnull align 8 dereferenceable(24) %26, i8 0, i64 24, i1 false)
  store ptr %18, ptr %27, align 8, !tbaa !19
  %28 = getelementptr inbounds nuw i8, ptr %18, i64 24
  store ptr null, ptr %28, align 8, !tbaa !20
  %29 = getelementptr inbounds nuw i8, ptr %18, i64 64
  store ptr null, ptr %29, align 8, !tbaa !21
  %30 = getelementptr inbounds nuw i8, ptr %18, i64 112
  store i64 0, ptr %30, align 8, !tbaa !22
  %31 = getelementptr inbounds nuw i8, ptr %18, i64 152
  tail call void @llvm.memset.p0.i64(ptr noundef nonnull align 8 dereferenceable(24) %31, i8 0, i64 24, i1 false)
  %32 = getelementptr inbounds nuw i8, ptr %18, i64 16
  store i32 0, ptr %32, align 8, !tbaa !23
  %33 = getelementptr inbounds nuw i8, ptr %18, i64 20
  %34 = load i32, ptr %33, align 4, !tbaa !24
  %35 = and i32 %34, -5
  store i32 %35, ptr %33, align 4, !tbaa !24
  %36 = getelementptr inbounds nuw i8, ptr %18, i64 432
  store i64 1, ptr %36, align 8, !tbaa !25
  %37 = getelementptr inbounds nuw i8, ptr %18, i64 120
  store i32 0, ptr %37, align 8, !tbaa !26
  %38 = getelementptr inbounds nuw i8, ptr %18, i64 72
  %39 = load ptr, ptr %38, align 8, !tbaa !27
  tail call void @curl_slist_free_all(ptr noundef %39) #18
  %40 = load i32, ptr %33, align 4, !tbaa !24
  %41 = and i32 %40, 1
  %.not12.i = icmp eq i32 %41, 0
  br i1 %.not12.i, label %Curl_mime_cleanpart.exit, label %42

42:                                               ; preds = %cleanup_part_content.exit.i12
  %43 = getelementptr inbounds nuw i8, ptr %18, i64 80
  %44 = load ptr, ptr %43, align 8, !tbaa !28
  tail call void @curl_slist_free_all(ptr noundef %44) #18
  br label %Curl_mime_cleanpart.exit

Curl_mime_cleanpart.exit:                         ; preds = %cleanup_part_content.exit.i12, %42
  %45 = load ptr, ptr @Curl_cfree, align 8, !tbaa !29
  %46 = getelementptr inbounds nuw i8, ptr %18, i64 88
  %47 = load ptr, ptr %46, align 8, !tbaa !30
  tail call void %45(ptr noundef %47) #18
  store ptr null, ptr %46, align 8, !tbaa !30
  %48 = load ptr, ptr @Curl_cfree, align 8, !tbaa !29
  %49 = getelementptr inbounds nuw i8, ptr %18, i64 104
  %50 = load ptr, ptr %49, align 8, !tbaa !31
  tail call void %48(ptr noundef %50) #18
  store ptr null, ptr %49, align 8, !tbaa !31
  %51 = load ptr, ptr @Curl_cfree, align 8, !tbaa !29
  %52 = getelementptr inbounds nuw i8, ptr %18, i64 96
  %53 = load ptr, ptr %52, align 8, !tbaa !32
  tail call void %51(ptr noundef %53) #18
  tail call void @llvm.memset.p0.i64(ptr noundef nonnull align 1 dereferenceable(432) %18, i8 0, i64 432, i1 false)
  store i64 1, ptr %36, align 8, !tbaa !25
  %54 = getelementptr inbounds nuw i8, ptr %18, i64 128
  tail call void @llvm.memset.p0.i64(ptr noundef nonnull align 8 dereferenceable(16) %54, i8 0, i64 16, i1 false)
  %55 = load ptr, ptr @Curl_cfree, align 8, !tbaa !29
  tail call void %55(ptr noundef nonnull %18) #18
  %56 = load ptr, ptr %16, align 8, !tbaa !35
  %.not10 = icmp eq ptr %56, null
  br i1 %.not10, label %._crit_edge, label %.lr.ph, !llvm.loop !37

._crit_edge:                                      ; preds = %Curl_mime_cleanpart.exit, %mime_subparts_unbind.exit
  %57 = load ptr, ptr @Curl_cfree, align 8, !tbaa !29
  tail call void %57(ptr noundef nonnull %0) #18
  br label %58

58:                                               ; preds = %._crit_edge, %1
  ret void
}